; Function Attrs: nounwind uwtable
define internal fastcc range(i32 -30, 1) i32 @add_pattern_mbs(ptr noundef %0, ptr noundef captures(none) %1, ptr noundef %2) unnamed_addr #0 {
  %4 = tail call noalias dereferenceable_or_null(120) ptr @calloc(i64 noundef 1, i64 noundef 120) #13
  %5 = icmp eq ptr %4, null
  br i1 %5, label %6, label %8

6:                                                ; preds = %3
  tail call void (ptr, i32, ptr, ...) @archive_set_error(ptr noundef %0, i32 noundef 12, ptr noundef nonnull @.str.32) #14
  %7 = getelementptr inbounds nuw i8, ptr %0, i64 4
  store i32 32768, ptr %7, align 4, !tbaa !27
  br label %30

8:                                                ; preds = %3
  %9 = tail call i64 @strlen(ptr noundef nonnull dereferenceable(1) %2) #16
  %.not = icmp eq i64 %9, 0
  br i1 %.not, label %16, label %10

10:                                               ; preds = %8
  %11 = getelementptr i8, ptr %2, i64 %9
  %12 = getelementptr i8, ptr %11, i64 -1
  %13 = load i8, ptr %12, align 1, !tbaa !84
  %14 = icmp eq i8 %13, 47
  %15 = sext i1 %14 to i64
  %spec.select = add i64 %9, %15
  br label %16

16:                                               ; preds = %10, %8
  %.0 = phi i64 [ 0, %8 ], [ %spec.select, %10 ]
  %17 = getelementptr inbounds nuw i8, ptr %4, i64 16
  %18 = tail call i32 @archive_mstring_copy_mbs_len(ptr noundef nonnull %17, ptr noundef nonnull %2, i64 noundef %.0) #14
  %19 = getelementptr inbounds nuw i8, ptr %1, i64 8
  %20 = load ptr, ptr %19, align 8, !tbaa !29
  store ptr %4, ptr %20, align 8, !tbaa !49
  store ptr %4, ptr %19, align 8, !tbaa !29
  %21 = getelementptr inbounds nuw i8, ptr %1, i64 16
  %22 = load i32, ptr %21, align 8, !tbaa !34
  %23 = add nsw i32 %22, 1
  store i32 %23, ptr %21, align 8, !tbaa !34
  %24 = getelementptr inbounds nuw i8, ptr %1, i64 20
  %25 = load i32, ptr %24, align 4, !tbaa !87
  %26 = add nsw i32 %25, 1
  store i32 %26, ptr %24, align 4, !tbaa !87
  %27 = getelementptr inbounds nuw i8, ptr %0, i64 144
  %28 = load i32, ptr %27, align 8, !tbaa !48
  %29 = or i32 %28, 1
  store i32 %29, ptr %27, align 8, !tbaa !48
  br label %30

30:                                               ; preds = %16, %6
  %.013 = phi i32 [ -30, %6 ], [ 0, %16 ]
  ret i32 %.013
}